target datalayout = "e-m:e-p270:32:32-p271:32:32-p272:64:64-i64:64-i128:128-f80:128-n8:16:32:64-S128"
target triple = "x86_64-pc-linux-gnu"

%struct.dbd_rec_msg_t = type { ptr }

@.str = private unnamed_addr constant [16 x i8] c"slurmdbd_pack.c\00", align 1
@.str.2 = private unnamed_addr constant [24 x i8] c"%s: Unknown unpack type\00", align 1
@__func__._unpack_rec_msg = private unnamed_addr constant [16 x i8] c"_unpack_rec_msg\00", align 1

; Function Attrs: nounwind uwtable
define internal i32 @_unpack_rec_msg(ptr noundef %0, i16 noundef zeroext %1, i32 noundef %2, ptr noundef %3) #0 {
  %5 = alloca i32, align 4
  %6 = alloca ptr, align 8
  %7 = alloca i16, align 2
  %8 = alloca i32, align 4
  %9 = alloca ptr, align 8
  %10 = alloca ptr, align 8
  %11 = alloca ptr, align 8
  %12 = alloca i32, align 4
  store ptr %0, ptr %6, align 8
  store i16 %1, ptr %7, align 2
  store i32 %2, ptr %8, align 4
  store ptr %3, ptr %9, align 8
  call void @llvm.lifetime.start.p0(i64 8, ptr %10) #5
  store ptr null, ptr %10, align 8
  call void @llvm.lifetime.start.p0(i64 8, ptr %11) #5
  %13 = load i32, ptr %8, align 4
  switch i32 %13, label %15 [
    i32 1461, label %14
    i32 1462, label %14
    i32 1463, label %14
  ]

14:                                               ; preds = %4, %4, %4
  store ptr @slurmdb_unpack_reservation_rec, ptr %11, align 8
  br label %16

15:                                               ; preds = %4
  call void (ptr, ...) @fatal(ptr noundef @.str.2, ptr noundef @__func__._unpack_rec_msg) #7
  unreachable

16:                                               ; preds = %14
  %17 = call ptr @slurm_xcalloc(i64 noundef 1, i64 noundef 8, i1 noundef zeroext true, i1 noundef zeroext false, ptr noundef @.str, i32 noundef 195, ptr noundef @__func__._unpack_rec_msg)
  store ptr %17, ptr %10, align 8
  %18 = load ptr, ptr %10, align 8
  %19 = load ptr, ptr %6, align 8
  store ptr %18, ptr %19, align 8
  %20 = load ptr, ptr %11, align 8
  %21 = load ptr, ptr %10, align 8
  %22 = getelementptr inbounds nuw %struct.dbd_rec_msg_t, ptr %21, i32 0, i32 0
  %23 = load i16, ptr %7, align 2
  %24 = load ptr, ptr %9, align 8
  %25 = call i32 %20(ptr noundef %22, i16 noundef zeroext %23, ptr noundef %24)
  %26 = icmp eq i32 %25, -1
  br i1 %26, label %27, label %28

27:                                               ; preds = %16
  br label %29

28:                                               ; preds = %16
  store i32 0, ptr %5, align 4
  store i32 1, ptr %12, align 4
  br label %33

29:                                               ; preds = %27
  %30 = load ptr, ptr %10, align 8
  %31 = load i32, ptr %8, align 4
  call void @slurmdbd_free_rec_msg(ptr noundef %30, i32 noundef %31)
  %32 = load ptr, ptr %6, align 8
  store ptr null, ptr %32, align 8
  store i32 -1, ptr %5, align 4
  store i32 1, ptr %12, align 4
  br label %33

33:                                               ; preds = %29, %28
  call void @llvm.lifetime.end.p0(i64 8, ptr %11) #5
  call void @llvm.lifetime.end.p0(i64 8, ptr %10) #5
  %34 = load i32, ptr %5, align 4
  ret i32 %34
}