; Function Attrs: nounwind uwtable
define internal fastcc range(i32 -1, 1) i32 @_unpack_rec_msg(ptr noundef writeonly captures(none) %0, i16 noundef zeroext %1, i32 noundef range(i32 0, 65536) %2, ptr noundef %3) unnamed_addr #0 {
  %trunc = trunc nuw i32 %2 to i16
  %trunc.off = add i16 %trunc, -1461
  %switch = icmp ult i16 %trunc.off, 3
  br i1 %switch, label %5, label %9

5:                                                ; preds = %4
  %6 = tail call ptr @slurm_xcalloc(i64 noundef 1, i64 noundef 8, i1 noundef zeroext true, i1 noundef zeroext false, ptr noundef nonnull @.str, i32 noundef 195, ptr noundef nonnull @__func__._unpack_rec_msg) #5
  store ptr %6, ptr %0, align 8
  %7 = tail call i32 @slurmdb_unpack_reservation_rec(ptr noundef %6, i16 noundef zeroext %1, ptr noundef %3) #5
  %8 = icmp eq i32 %7, -1
  br i1 %8, label %10, label %11

9:                                                ; preds = %4
  tail call void (ptr, ...) @fatal(ptr noundef nonnull @.str.2, ptr noundef nonnull @__func__._unpack_rec_msg) #6
  unreachable

10:                                               ; preds = %5
  tail call void @slurmdbd_free_rec_msg(ptr noundef %6, i32 noundef %2) #5
  store ptr null, ptr %0, align 8
  br label %11

11:                                               ; preds = %5, %10
  %.0 = phi i32 [ -1, %10 ], [ 0, %5 ]
  ret i32 %.0
}